target datalayout = "e-m:e-p270:32:32-p271:32:32-p272:64:64-i64:64-i128:128-f80:128-n8:16:32:64-S128"
target triple = "x86_64-pc-linux-gnu"

%struct._prefix_stats = type { ptr, i64, i64, i64, i64, i64, ptr }

@.str.62 = private unnamed_addr constant [10 x i8] c"testapp.c\00", align 1
@.str.80 = private unnamed_addr constant [8 x i8] c"abc:123\00", align 1
@.str.82 = private unnamed_addr constant [19 x i8] c"0 == pfs->num_hits\00", align 1
@.str.87 = private unnamed_addr constant [5 x i8] c"def:\00", align 1
@.str.88 = private unnamed_addr constant [19 x i8] c"0 == pfs->num_gets\00", align 1
@__PRETTY_FUNCTION__.test_stats_prefix_record_delete = private unnamed_addr constant [55 x i8] c"enum test_return test_stats_prefix_record_delete(void)\00", align 1
@.str.89 = private unnamed_addr constant [22 x i8] c"1 == pfs->num_deletes\00", align 1
@.str.90 = private unnamed_addr constant [19 x i8] c"0 == pfs->num_sets\00", align 1

; Function Attrs: nounwind uwtable
define internal i32 @test_stats_prefix_record_delete() #0 {
  %1 = alloca i32, align 4
  %2 = alloca ptr, align 8
  %3 = alloca i32, align 4
  call void @llvm.lifetime.start.p0(i64 8, ptr %2) #12
  call void @stats_prefix_clear()
  call void @stats_prefix_record_delete(ptr noundef @.str.80, i64 noundef 7)
  %4 = call ptr @stats_prefix_find(ptr noundef @.str.80, i64 noundef 7)
  store ptr %4, ptr %2, align 8, !tbaa !24
  %5 = load ptr, ptr %2, align 8, !tbaa !24
  %6 = icmp eq ptr %5, null
  br i1 %6, label %7, label %8

7:                                                ; preds = %0
  store i32 2, ptr %1, align 4
  store i32 1, ptr %3, align 4
  br label %44

8:                                                ; preds = %0
  %9 = load ptr, ptr %2, align 8, !tbaa !24
  %10 = getelementptr inbounds nuw %struct._prefix_stats, ptr %9, i32 0, i32 2
  %11 = load i64, ptr %10, align 8, !tbaa !26
  %12 = icmp eq i64 0, %11
  br i1 %12, label %13, label %14

13:                                               ; preds = %8
  br label %15

14:                                               ; preds = %8
  call void @__assert_fail(ptr noundef @.str.88, ptr noundef @.str.62, i32 noundef 280, ptr noundef @__PRETTY_FUNCTION__.test_stats_prefix_record_delete) #13
  unreachable

15:                                               ; preds = %13
  %16 = load ptr, ptr %2, align 8, !tbaa !24
  %17 = getelementptr inbounds nuw %struct._prefix_stats, ptr %16, i32 0, i32 5
  %18 = load i64, ptr %17, align 8, !tbaa !30
  %19 = icmp eq i64 0, %18
  br i1 %19, label %20, label %21

20:                                               ; preds = %15
  br label %22

21:                                               ; preds = %15
  call void @__assert_fail(ptr noundef @.str.82, ptr noundef @.str.62, i32 noundef 281, ptr noundef @__PRETTY_FUNCTION__.test_stats_prefix_record_delete) #13
  unreachable

22:                                               ; preds = %20
  %23 = load ptr, ptr %2, align 8, !tbaa !24
  %24 = getelementptr inbounds nuw %struct._prefix_stats, ptr %23, i32 0, i32 4
  %25 = load i64, ptr %24, align 8, !tbaa !29
  %26 = icmp eq i64 1, %25
  br i1 %26, label %27, label %28

27:                                               ; preds = %22
  br label %29

28:                                               ; preds = %22
  call void @__assert_fail(ptr noundef @.str.89, ptr noundef @.str.62, i32 noundef 282, ptr noundef @__PRETTY_FUNCTION__.test_stats_prefix_record_delete) #13
  unreachable

29:                                               ; preds = %27
  %30 = load ptr, ptr %2, align 8, !tbaa !24
  %31 = getelementptr inbounds nuw %struct._prefix_stats, ptr %30, i32 0, i32 3
  %32 = load i64, ptr %31, align 8, !tbaa !28
  %33 = icmp eq i64 0, %32
  br i1 %33, label %34, label %35

34:                                               ; preds = %29
  br label %36

35:                                               ; preds = %29
  call void @__assert_fail(ptr noundef @.str.90, ptr noundef @.str.62, i32 noundef 283, ptr noundef @__PRETTY_FUNCTION__.test_stats_prefix_record_delete) #13
  unreachable

36:                                               ; preds = %34
  call void @stats_prefix_record_delete(ptr noundef @.str.87, i64 noundef 4)
  %37 = load ptr, ptr %2, align 8, !tbaa !24
  %38 = getelementptr inbounds nuw %struct._prefix_stats, ptr %37, i32 0, i32 4
  %39 = load i64, ptr %38, align 8, !tbaa !29
  %40 = icmp eq i64 1, %39
  br i1 %40, label %41, label %42

41:                                               ; preds = %36
  br label %43

42:                                               ; preds = %36
  call void @__assert_fail(ptr noundef @.str.89, ptr noundef @.str.62, i32 noundef 285, ptr noundef @__PRETTY_FUNCTION__.test_stats_prefix_record_delete) #13
  unreachable

43:                                               ; preds = %41
  store i32 1, ptr %1, align 4
  store i32 1, ptr %3, align 4
  br label %44

44:                                               ; preds = %43, %7
  call void @llvm.lifetime.end.p0(i64 8, ptr %2) #12
  %45 = load i32, ptr %1, align 4
  ret i32 %45
}